; Function Attrs: cold nounwind optsize uwtable
define internal noundef i32 @h264_decode_end(ptr noundef readonly captures(none) %0) #6 {
  %2 = getelementptr inbounds nuw i8, ptr %0, i64 32
  %3 = load ptr, ptr %2, align 8, !tbaa !4
  tail call void @ff_h264_remove_all_refs(ptr noundef %3) #11
  tail call void @ff_h264_free_tables(ptr noundef %3)
  %4 = getelementptr inbounds nuw i8, ptr %3, i64 701840
  br label %5

5:                                                ; preds = %1, %5
  %indvars.iv = phi i64 [ 0, %1 ], [ %indvars.iv.next, %5 ]
  %6 = getelementptr inbounds nuw [36 x %struct.H264Picture], ptr %4, i64 0, i64 %indvars.iv
  tail call void @ff_h264_unref_picture(ptr noundef nonnull %6) #11
  tail call void @av_frame_free(ptr noundef nonnull %6) #11
  %7 = getelementptr inbounds nuw i8, ptr %6, i64 40
  tail call void @av_frame_free(ptr noundef nonnull %7) #11
  %indvars.iv.next = add nuw nsw i64 %indvars.iv, 1
  %exitcond.not = icmp eq i64 %indvars.iv.next, 36
  br i1 %exitcond.not, label %8, label %5, !llvm.loop !266

8:                                                ; preds = %5
  %9 = getelementptr inbounds nuw i8, ptr %3, i64 735480
  tail call void @llvm.memset.p0.i64(ptr noundef nonnull align 8 dereferenceable(144) %9, i8 0, i64 144, i1 false)
  %10 = getelementptr inbounds nuw i8, ptr %3, i64 729200
  store ptr null, ptr %10, align 8, !tbaa !154
  %11 = getelementptr inbounds nuw i8, ptr %3, i64 737696
  tail call void @av_refstruct_unref(ptr noundef nonnull %11) #11
  %12 = getelementptr inbounds nuw i8, ptr %3, i64 730728
  tail call void @av_freep(ptr noundef nonnull %12) #11
  %13 = getelementptr inbounds nuw i8, ptr %3, i64 730736
  store i32 0, ptr %13, align 8, !tbaa !91
  %14 = getelementptr inbounds nuw i8, ptr %3, i64 737128
  tail call void @ff_h264_sei_uninit(ptr noundef nonnull %14) #11
  %15 = getelementptr inbounds nuw i8, ptr %3, i64 732472
  tail call void @ff_h264_ps_uninit(ptr noundef nonnull %15) #11
  %16 = getelementptr inbounds nuw i8, ptr %3, i64 730744
  tail call void @ff_h2645_packet_uninit(ptr noundef nonnull %16) #11
  %17 = getelementptr inbounds nuw i8, ptr %3, i64 729208
  tail call void @ff_h264_unref_picture(ptr noundef nonnull %17) #11
  tail call void @av_frame_free(ptr noundef nonnull %17) #11
  %18 = getelementptr inbounds nuw i8, ptr %3, i64 729248
  tail call void @av_frame_free(ptr noundef nonnull %18) #11
  %19 = getelementptr inbounds nuw i8, ptr %3, i64 729968
  tail call void @ff_h264_unref_picture(ptr noundef nonnull %19) #11
  tail call void @av_frame_free(ptr noundef nonnull %19) #11
  %20 = getelementptr inbounds nuw i8, ptr %3, i64 730008
  tail call void @av_frame_free(ptr noundef nonnull %20) #11
  ret i32 0
}